target datalayout = "e-m:e-p270:32:32-p271:32:32-p272:64:64-i64:64-i128:128-f80:128-n8:16:32:64-S128"
target triple = "x86_64-unknown-linux-gnu"

%"class.net::P256KeyExchange" = type <{ %"class.net::KeyExchange", %"class.std::unique_ptr", [65 x i8], [7 x i8] }>
%"class.net::KeyExchange" = type { ptr }
%"class.std::unique_ptr" = type { %"struct.std::__uniq_ptr_data" }
%"struct.std::__uniq_ptr_data" = type { %"class.std::__uniq_ptr_impl" }
%"class.std::__uniq_ptr_impl" = type { %"class.std::tuple" }
%"class.std::tuple" = type { %"struct.std::_Tuple_impl" }
%"struct.std::_Tuple_impl" = type { %"struct.std::_Head_base.1" }
%"struct.std::_Head_base.1" = type { ptr }
%"class.base::BasicStringPiece" = type { ptr, i64 }

; Function Attrs: mustprogress uwtable
define dso_local { ptr, i64 } @_ZNK3net15P256KeyExchange12public_valueB5cxx11Ev(ptr noundef nonnull align 8 dereferenceable(81) %this) unnamed_addr #3 align 2 {
entry:
  %retval = alloca %"class.base::BasicStringPiece", align 8
  %this.addr = alloca ptr, align 8
  store ptr %this, ptr %this.addr, align 8
  %this1 = load ptr, ptr %this.addr, align 8
  %public_key_ = getelementptr inbounds %"class.net::P256KeyExchange", ptr %this1, i32 0, i32 2
  %arraydecay = getelementptr inbounds [65 x i8], ptr %public_key_, i64 0, i64 0
  call void @_ZN4base16BasicStringPieceINSt7__cxx1112basic_stringIcSt11char_traitsIcESaIcEEEEC1EPKcm(ptr noundef nonnull align 8 dereferenceable(16) %retval, ptr noundef %arraydecay, i64 noundef 65)
  %0 = load { ptr, i64 }, ptr %retval, align 8
  ret { ptr, i64 } %0
}